target datalayout = "e-m:e-p270:32:32-p271:32:32-p272:64:64-i64:64-i128:128-f80:128-n8:16:32:64-S128"
target triple = "x86_64-pc-linux-gnu"

%struct.strbuf = type { i64, i64, ptr }
%struct.buffer = type { %struct.strbuf, i64 }

; Function Attrs: nounwind uwtable
define dso_local i64 @fread_buffer(ptr noundef %0, i64 noundef %1, i64 noundef %2, ptr noundef %3) #0 {
  %5 = alloca ptr, align 8
  %6 = alloca i64, align 8
  %7 = alloca i64, align 8
  %8 = alloca ptr, align 8
  %9 = alloca i64, align 8
  %10 = alloca ptr, align 8
  store ptr %0, ptr %5, align 8, !tbaa !4
  store i64 %1, ptr %6, align 8, !tbaa !9
  store i64 %2, ptr %7, align 8, !tbaa !9
  store ptr %3, ptr %8, align 8, !tbaa !11
  call void @llvm.lifetime.start.p0(i64 8, ptr %9) #11
  %11 = load i64, ptr %6, align 8, !tbaa !9
  %12 = load i64, ptr %7, align 8, !tbaa !9
  %13 = mul i64 %11, %12
  store i64 %13, ptr %9, align 8, !tbaa !9
  call void @llvm.lifetime.start.p0(i64 8, ptr %10) #11
  %14 = load ptr, ptr %8, align 8, !tbaa !11
  store ptr %14, ptr %10, align 8, !tbaa !12
  %15 = load i64, ptr %9, align 8, !tbaa !9
  %16 = load ptr, ptr %10, align 8, !tbaa !12
  %17 = getelementptr inbounds nuw %struct.buffer, ptr %16, i32 0, i32 0
  %18 = getelementptr inbounds nuw %struct.strbuf, ptr %17, i32 0, i32 1
  %19 = load i64, ptr %18, align 8, !tbaa !14
  %20 = load ptr, ptr %10, align 8, !tbaa !12
  %21 = getelementptr inbounds nuw %struct.buffer, ptr %20, i32 0, i32 1
  %22 = load i64, ptr %21, align 8, !tbaa !17
  %23 = sub i64 %19, %22
  %24 = icmp ugt i64 %15, %23
  br i1 %24, label %25, label %34

25:                                               ; preds = %4
  %26 = load ptr, ptr %10, align 8, !tbaa !12
  %27 = getelementptr inbounds nuw %struct.buffer, ptr %26, i32 0, i32 0
  %28 = getelementptr inbounds nuw %struct.strbuf, ptr %27, i32 0, i32 1
  %29 = load i64, ptr %28, align 8, !tbaa !14
  %30 = load ptr, ptr %10, align 8, !tbaa !12
  %31 = getelementptr inbounds nuw %struct.buffer, ptr %30, i32 0, i32 1
  %32 = load i64, ptr %31, align 8, !tbaa !17
  %33 = sub i64 %29, %32
  store i64 %33, ptr %9, align 8, !tbaa !9
  br label %34

34:                                               ; preds = %25, %4
  %35 = load ptr, ptr %5, align 8, !tbaa !4
  %36 = load ptr, ptr %10, align 8, !tbaa !12
  %37 = getelementptr inbounds nuw %struct.buffer, ptr %36, i32 0, i32 0
  %38 = getelementptr inbounds nuw %struct.strbuf, ptr %37, i32 0, i32 2
  %39 = load ptr, ptr %38, align 8, !tbaa !18
  %40 = load ptr, ptr %10, align 8, !tbaa !12
  %41 = getelementptr inbounds nuw %struct.buffer, ptr %40, i32 0, i32 1
  %42 = load i64, ptr %41, align 8, !tbaa !17
  %43 = getelementptr inbounds nuw i8, ptr %39, i64 %42
  %44 = load i64, ptr %9, align 8, !tbaa !9
  call void @llvm.memcpy.p0.p0.i64(ptr align 1 %35, ptr align 1 %43, i64 %44, i1 false)
  %45 = load i64, ptr %9, align 8, !tbaa !9
  %46 = load ptr, ptr %10, align 8, !tbaa !12
  %47 = getelementptr inbounds nuw %struct.buffer, ptr %46, i32 0, i32 1
  %48 = load i64, ptr %47, align 8, !tbaa !17
  %49 = add i64 %48, %45
  store i64 %49, ptr %47, align 8, !tbaa !17
  %50 = load i64, ptr %9, align 8, !tbaa !9
  %51 = load i64, ptr %6, align 8, !tbaa !9
  %52 = udiv i64 %50, %51
  call void @llvm.lifetime.end.p0(i64 8, ptr %10) #11
  call void @llvm.lifetime.end.p0(i64 8, ptr %9) #11
  ret i64 %52
}