; Function Attrs: mustprogress nofree norecurse nosync nounwind willreturn memory(readwrite, inaccessiblemem: none) uwtable
define dso_local i64 @fread_buffer(ptr noundef writeonly captures(none) %0, i64 noundef %1, i64 noundef %2, ptr noundef captures(none) %3) local_unnamed_addr #0 {
  %5 = mul i64 %2, %1
  %6 = getelementptr inbounds nuw i8, ptr %3, i64 8
  %7 = load i64, ptr %6, align 8, !tbaa !4
  %8 = getelementptr inbounds nuw i8, ptr %3, i64 24
  %9 = load i64, ptr %8, align 8, !tbaa !12
  %10 = sub i64 %7, %9
  %spec.select = tail call i64 @llvm.umin.i64(i64 %5, i64 %10)
  %11 = getelementptr inbounds nuw i8, ptr %3, i64 16
  %12 = load ptr, ptr %11, align 8, !tbaa !13
  %13 = getelementptr inbounds nuw i8, ptr %12, i64 %9
  tail call void @llvm.memcpy.p0.p0.i64(ptr align 1 %0, ptr align 1 %13, i64 %spec.select, i1 false)
  %14 = load i64, ptr %8, align 8, !tbaa !12
  %15 = add i64 %14, %spec.select
  store i64 %15, ptr %8, align 8, !tbaa !12
  %16 = udiv i64 %spec.select, %1
  ret i64 %16
}